target datalayout = "e-m:e-p270:32:32-p271:32:32-p272:64:64-i64:64-i128:128-f80:128-n8:16:32:64-S128"
target triple = "x86_64-pc-linux-gnu"

%struct.AVPacket = type { ptr, i64, i64, ptr, i32, i32, i32, ptr, i32, i64, i64, ptr, ptr, %struct.AVRational }
%struct.AVRational = type { i32, i32 }

@.str.8 = private unnamed_addr constant [4 x i8] c"N/A\00", align 1
@.str.15 = private unnamed_addr constant [2 x i8] c"\0A\00", align 1
@.str.30 = private unnamed_addr constant [13 x i8] c"stream #%d:\0A\00", align 1
@.str.31 = private unnamed_addr constant [15 x i8] c"  keyframe=%d\0A\00", align 1
@.str.32 = private unnamed_addr constant [18 x i8] c"  duration=%0.3f\0A\00", align 1
@.str.33 = private unnamed_addr constant [7 x i8] c"  dts=\00", align 1
@.str.34 = private unnamed_addr constant [6 x i8] c"%0.3f\00", align 1
@.str.35 = private unnamed_addr constant [7 x i8] c"  pts=\00", align 1
@.str.36 = private unnamed_addr constant [11 x i8] c"  size=%d\0A\00", align 1

; Function Attrs: inlinehint nounwind uwtable
define internal double @av_q2d(i64 %0) #5 {
  %2 = alloca %struct.AVRational, align 4
  store i64 %0, ptr %2, align 4
  %3 = getelementptr inbounds nuw %struct.AVRational, ptr %2, i32 0, i32 0
  %4 = load i32, ptr %3, align 4, !tbaa !92
  %5 = sitofp i32 %4 to double
  %6 = getelementptr inbounds nuw %struct.AVRational, ptr %2, i32 0, i32 1
  %7 = load i32, ptr %6, align 4, !tbaa !93
  %8 = sitofp i32 %7 to double
  %9 = fdiv nsz double %5, %8
  ret double %9
}

; Function Attrs: nounwind uwtable
define internal void @pkt_dump_internal(ptr noundef %0, ptr noundef %1, i32 noundef %2, ptr noundef %3, i32 noundef %4, i64 %5) #0 {
  %7 = alloca %struct.AVRational, align 4
  %8 = alloca ptr, align 8
  %9 = alloca ptr, align 8
  %10 = alloca i32, align 4
  %11 = alloca ptr, align 8
  %12 = alloca i32, align 4
  store i64 %5, ptr %7, align 4
  store ptr %0, ptr %8, align 8, !tbaa !13
  store ptr %1, ptr %9, align 8, !tbaa !4
  store i32 %2, ptr %10, align 4, !tbaa !11
  store ptr %3, ptr %11, align 8, !tbaa !19
  store i32 %4, ptr %12, align 4, !tbaa !11
  br label %13

13:                                               ; preds = %6
  %14 = load ptr, ptr %9, align 8, !tbaa !4
  %15 = icmp ne ptr %14, null
  br i1 %15, label %22, label %16

16:                                               ; preds = %13
  %17 = load ptr, ptr %8, align 8, !tbaa !13
  %18 = load i32, ptr %10, align 4, !tbaa !11
  %19 = load ptr, ptr %11, align 8, !tbaa !19
  %20 = getelementptr inbounds nuw %struct.AVPacket, ptr %19, i32 0, i32 5
  %21 = load i32, ptr %20, align 4, !tbaa !23
  call void (ptr, i32, ptr, ...) @av_log(ptr noundef %17, i32 noundef %18, ptr noundef @.str.30, i32 noundef %21)
  br label %28

22:                                               ; preds = %13
  %23 = load ptr, ptr %9, align 8, !tbaa !4
  %24 = load ptr, ptr %11, align 8, !tbaa !19
  %25 = getelementptr inbounds nuw %struct.AVPacket, ptr %24, i32 0, i32 5
  %26 = load i32, ptr %25, align 4, !tbaa !23
  %27 = call i32 (ptr, ptr, ...) @fprintf(ptr noundef %23, ptr noundef @.str.30, i32 noundef %26) #9
  br label %28

28:                                               ; preds = %22, %16
  br label %29

29:                                               ; preds = %28
  br label %30

30:                                               ; preds = %29
  %31 = load ptr, ptr %9, align 8, !tbaa !4
  %32 = icmp ne ptr %31, null
  br i1 %32, label %42, label %33

33:                                               ; preds = %30
  %34 = load ptr, ptr %8, align 8, !tbaa !13
  %35 = load i32, ptr %10, align 4, !tbaa !11
  %36 = load ptr, ptr %11, align 8, !tbaa !19
  %37 = getelementptr inbounds nuw %struct.AVPacket, ptr %36, i32 0, i32 6
  %38 = load i32, ptr %37, align 8, !tbaa !29
  %39 = and i32 %38, 1
  %40 = icmp ne i32 %39, 0
  %41 = zext i1 %40 to i32
  call void (ptr, i32, ptr, ...) @av_log(ptr noundef %34, i32 noundef %35, ptr noundef @.str.31, i32 noundef %41)
  br label %51

42:                                               ; preds = %30
  %43 = load ptr, ptr %9, align 8, !tbaa !4
  %44 = load ptr, ptr %11, align 8, !tbaa !19
  %45 = getelementptr inbounds nuw %struct.AVPacket, ptr %44, i32 0, i32 6
  %46 = load i32, ptr %45, align 8, !tbaa !29
  %47 = and i32 %46, 1
  %48 = icmp ne i32 %47, 0
  %49 = zext i1 %48 to i32
  %50 = call i32 (ptr, ptr, ...) @fprintf(ptr noundef %43, ptr noundef @.str.31, i32 noundef %49) #9
  br label %51

51:                                               ; preds = %42, %33
  br label %52

52:                                               ; preds = %51
  br label %53

53:                                               ; preds = %52
  %54 = load ptr, ptr %9, align 8, !tbaa !4
  %55 = icmp ne ptr %54, null
  br i1 %55, label %66, label %56

56:                                               ; preds = %53
  %57 = load ptr, ptr %8, align 8, !tbaa !13
  %58 = load i32, ptr %10, align 4, !tbaa !11
  %59 = load ptr, ptr %11, align 8, !tbaa !19
  %60 = getelementptr inbounds nuw %struct.AVPacket, ptr %59, i32 0, i32 9
  %61 = load i64, ptr %60, align 8, !tbaa !30
  %62 = sitofp i64 %61 to double
  %63 = load i64, ptr %7, align 4
  %64 = call nsz double @av_q2d(i64 %63)
  %65 = fmul nsz double %62, %64
  call void (ptr, i32, ptr, ...) @av_log(ptr noundef %57, i32 noundef %58, ptr noundef @.str.32, double noundef %65)
  br label %76

66:                                               ; preds = %53
  %67 = load ptr, ptr %9, align 8, !tbaa !4
  %68 = load ptr, ptr %11, align 8, !tbaa !19
  %69 = getelementptr inbounds nuw %struct.AVPacket, ptr %68, i32 0, i32 9
  %70 = load i64, ptr %69, align 8, !tbaa !30
  %71 = sitofp i64 %70 to double
  %72 = load i64, ptr %7, align 4
  %73 = call nsz double @av_q2d(i64 %72)
  %74 = fmul nsz double %71, %73
  %75 = call i32 (ptr, ptr, ...) @fprintf(ptr noundef %67, ptr noundef @.str.32, double noundef %74) #9
  br label %76

76:                                               ; preds = %66, %56
  br label %77

77:                                               ; preds = %76
  br label %78

78:                                               ; preds = %77
  %79 = load ptr, ptr %9, align 8, !tbaa !4
  %80 = icmp ne ptr %79, null
  br i1 %80, label %84, label %81

81:                                               ; preds = %78
  %82 = load ptr, ptr %8, align 8, !tbaa !13
  %83 = load i32, ptr %10, align 4, !tbaa !11
  call void (ptr, i32, ptr, ...) @av_log(ptr noundef %82, i32 noundef %83, ptr noundef @.str.33)
  br label %87

84:                                               ; preds = %78
  %85 = load ptr, ptr %9, align 8, !tbaa !4
  %86 = call i32 (ptr, ptr, ...) @fprintf(ptr noundef %85, ptr noundef @.str.33) #9
  br label %87

87:                                               ; preds = %84, %81
  br label %88

88:                                               ; preds = %87
  %89 = load ptr, ptr %11, align 8, !tbaa !19
  %90 = getelementptr inbounds nuw %struct.AVPacket, ptr %89, i32 0, i32 2
  %91 = load i64, ptr %90, align 8, !tbaa !31
  %92 = icmp eq i64 %91, -9223372036854775808
  br i1 %92, label %93, label %105

93:                                               ; preds = %88
  br label %94

94:                                               ; preds = %93
  %95 = load ptr, ptr %9, align 8, !tbaa !4
  %96 = icmp ne ptr %95, null
  br i1 %96, label %100, label %97

97:                                               ; preds = %94
  %98 = load ptr, ptr %8, align 8, !tbaa !13
  %99 = load i32, ptr %10, align 4, !tbaa !11
  call void (ptr, i32, ptr, ...) @av_log(ptr noundef %98, i32 noundef %99, ptr noundef @.str.8)
  br label %103

100:                                              ; preds = %94
  %101 = load ptr, ptr %9, align 8, !tbaa !4
  %102 = call i32 (ptr, ptr, ...) @fprintf(ptr noundef %101, ptr noundef @.str.8) #9
  br label %103

103:                                              ; preds = %100, %97
  br label %104

104:                                              ; preds = %103
  br label %131

105:                                              ; preds = %88
  br label %106

106:                                              ; preds = %105
  %107 = load ptr, ptr %9, align 8, !tbaa !4
  %108 = icmp ne ptr %107, null
  br i1 %108, label %119, label %109

109:                                              ; preds = %106
  %110 = load ptr, ptr %8, align 8, !tbaa !13
  %111 = load i32, ptr %10, align 4, !tbaa !11
  %112 = load ptr, ptr %11, align 8, !tbaa !19
  %113 = getelementptr inbounds nuw %struct.AVPacket, ptr %112, i32 0, i32 2
  %114 = load i64, ptr %113, align 8, !tbaa !31
  %115 = sitofp i64 %114 to double
  %116 = load i64, ptr %7, align 4
  %117 = call nsz double @av_q2d(i64 %116)
  %118 = fmul nsz double %115, %117
  call void (ptr, i32, ptr, ...) @av_log(ptr noundef %110, i32 noundef %111, ptr noundef @.str.34, double noundef %118)
  br label %129

119:                                              ; preds = %106
  %120 = load ptr, ptr %9, align 8, !tbaa !4
  %121 = load ptr, ptr %11, align 8, !tbaa !19
  %122 = getelementptr inbounds nuw %struct.AVPacket, ptr %121, i32 0, i32 2
  %123 = load i64, ptr %122, align 8, !tbaa !31
  %124 = sitofp i64 %123 to double
  %125 = load i64, ptr %7, align 4
  %126 = call nsz double @av_q2d(i64 %125)
  %127 = fmul nsz double %124, %126
  %128 = call i32 (ptr, ptr, ...) @fprintf(ptr noundef %120, ptr noundef @.str.34, double noundef %127) #9
  br label %129

129:                                              ; preds = %119, %109
  br label %130

130:                                              ; preds = %129
  br label %131

131:                                              ; preds = %130, %104
  br label %132

132:                                              ; preds = %131
  %133 = load ptr, ptr %9, align 8, !tbaa !4
  %134 = icmp ne ptr %133, null
  br i1 %134, label %138, label %135

135:                                              ; preds = %132
  %136 = load ptr, ptr %8, align 8, !tbaa !13
  %137 = load i32, ptr %10, align 4, !tbaa !11
  call void (ptr, i32, ptr, ...) @av_log(ptr noundef %136, i32 noundef %137, ptr noundef @.str.35)
  br label %141

138:                                              ; preds = %132
  %139 = load ptr, ptr %9, align 8, !tbaa !4
  %140 = call i32 (ptr, ptr, ...) @fprintf(ptr noundef %139, ptr noundef @.str.35) #9
  br label %141

141:                                              ; preds = %138, %135
  br label %142

142:                                              ; preds = %141
  %143 = load ptr, ptr %11, align 8, !tbaa !19
  %144 = getelementptr inbounds nuw %struct.AVPacket, ptr %143, i32 0, i32 1
  %145 = load i64, ptr %144, align 8, !tbaa !32
  %146 = icmp eq i64 %145, -9223372036854775808
  br i1 %146, label %147, label %159

147:                                              ; preds = %142
  br label %148

148:                                              ; preds = %147
  %149 = load ptr, ptr %9, align 8, !tbaa !4
  %150 = icmp ne ptr %149, null
  br i1 %150, label %154, label %151

151:                                              ; preds = %148
  %152 = load ptr, ptr %8, align 8, !tbaa !13
  %153 = load i32, ptr %10, align 4, !tbaa !11
  call void (ptr, i32, ptr, ...) @av_log(ptr noundef %152, i32 noundef %153, ptr noundef @.str.8)
  br label %157

154:                                              ; preds = %148
  %155 = load ptr, ptr %9, align 8, !tbaa !4
  %156 = call i32 (ptr, ptr, ...) @fprintf(ptr noundef %155, ptr noundef @.str.8) #9
  br label %157

157:                                              ; preds = %154, %151
  br label %158

158:                                              ; preds = %157
  br label %185

159:                                              ; preds = %142
  br label %160

160:                                              ; preds = %159
  %161 = load ptr, ptr %9, align 8, !tbaa !4
  %162 = icmp ne ptr %161, null
  br i1 %162, label %173, label %163

163:                                              ; preds = %160
  %164 = load ptr, ptr %8, align 8, !tbaa !13
  %165 = load i32, ptr %10, align 4, !tbaa !11
  %166 = load ptr, ptr %11, align 8, !tbaa !19
  %167 = getelementptr inbounds nuw %struct.AVPacket, ptr %166, i32 0, i32 1
  %168 = load i64, ptr %167, align 8, !tbaa !32
  %169 = sitofp i64 %168 to double
  %170 = load i64, ptr %7, align 4
  %171 = call nsz double @av_q2d(i64 %170)
  %172 = fmul nsz double %169, %171
  call void (ptr, i32, ptr, ...) @av_log(ptr noundef %164, i32 noundef %165, ptr noundef @.str.34, double noundef %172)
  br label %183

173:                                              ; preds = %160
  %174 = load ptr, ptr %9, align 8, !tbaa !4
  %175 = load ptr, ptr %11, align 8, !tbaa !19
  %176 = getelementptr inbounds nuw %struct.AVPacket, ptr %175, i32 0, i32 1
  %177 = load i64, ptr %176, align 8, !tbaa !32
  %178 = sitofp i64 %177 to double
  %179 = load i64, ptr %7, align 4
  %180 = call nsz double @av_q2d(i64 %179)
  %181 = fmul nsz double %178, %180
  %182 = call i32 (ptr, ptr, ...) @fprintf(ptr noundef %174, ptr noundef @.str.34, double noundef %181) #9
  br label %183

183:                                              ; preds = %173, %163
  br label %184

184:                                              ; preds = %183
  br label %185

185:                                              ; preds = %184, %158
  br label %186

186:                                              ; preds = %185
  %187 = load ptr, ptr %9, align 8, !tbaa !4
  %188 = icmp ne ptr %187, null
  br i1 %188, label %192, label %189

189:                                              ; preds = %186
  %190 = load ptr, ptr %8, align 8, !tbaa !13
  %191 = load i32, ptr %10, align 4, !tbaa !11
  call void (ptr, i32, ptr, ...) @av_log(ptr noundef %190, i32 noundef %191, ptr noundef @.str.15)
  br label %195

192:                                              ; preds = %186
  %193 = load ptr, ptr %9, align 8, !tbaa !4
  %194 = call i32 (ptr, ptr, ...) @fprintf(ptr noundef %193, ptr noundef @.str.15) #9
  br label %195

195:                                              ; preds = %192, %189
  br label %196

196:                                              ; preds = %195
  br label %197

197:                                              ; preds = %196
  %198 = load ptr, ptr %9, align 8, !tbaa !4
  %199 = icmp ne ptr %198, null
  br i1 %199, label %206, label %200

200:                                              ; preds = %197
  %201 = load ptr, ptr %8, align 8, !tbaa !13
  %202 = load i32, ptr %10, align 4, !tbaa !11
  %203 = load ptr, ptr %11, align 8, !tbaa !19
  %204 = getelementptr inbounds nuw %struct.AVPacket, ptr %203, i32 0, i32 4
  %205 = load i32, ptr %204, align 8, !tbaa !33
  call void (ptr, i32, ptr, ...) @av_log(ptr noundef %201, i32 noundef %202, ptr noundef @.str.36, i32 noundef %205)
  br label %212

206:                                              ; preds = %197
  %207 = load ptr, ptr %9, align 8, !tbaa !4
  %208 = load ptr, ptr %11, align 8, !tbaa !19
  %209 = getelementptr inbounds nuw %struct.AVPacket, ptr %208, i32 0, i32 4
  %210 = load i32, ptr %209, align 8, !tbaa !33
  %211 = call i32 (ptr, ptr, ...) @fprintf(ptr noundef %207, ptr noundef @.str.36, i32 noundef %210) #9
  br label %212

212:                                              ; preds = %206, %200
  br label %213

213:                                              ; preds = %212
  %214 = load i32, ptr %12, align 4, !tbaa !11
  %215 = icmp ne i32 %214, 0
  br i1 %215, label %216, label %226

216:                                              ; preds = %213
  %217 = load ptr, ptr %8, align 8, !tbaa !13
  %218 = load ptr, ptr %9, align 8, !tbaa !4
  %219 = load i32, ptr %10, align 4, !tbaa !11
  %220 = load ptr, ptr %11, align 8, !tbaa !19
  %221 = getelementptr inbounds nuw %struct.AVPacket, ptr %220, i32 0, i32 3
  %222 = load ptr, ptr %221, align 8, !tbaa !34
  %223 = load ptr, ptr %11, align 8, !tbaa !19
  %224 = getelementptr inbounds nuw %struct.AVPacket, ptr %223, i32 0, i32 4
  %225 = load i32, ptr %224, align 8, !tbaa !33
  call void @hex_dump_internal(ptr noundef %217, ptr noundef %218, i32 noundef %219, ptr noundef %222, i32 noundef %225)
  br label %226

226:                                              ; preds = %216, %213
  ret void
}