; Function Attrs: nounwind uwtable
define internal fastcc void @pkt_dump_internal(ptr noundef %0, ptr noundef captures(address_is_null) %1, i32 noundef %2, ptr noundef readonly captures(none) %3, i32 noundef %4, i64 %5) unnamed_addr #0 {
  %.not = icmp eq ptr %1, null
  %7 = getelementptr inbounds nuw i8, ptr %3, i64 36
  %8 = load i32, ptr %7, align 4, !tbaa !11
  %9 = getelementptr inbounds nuw i8, ptr %3, i64 40
  %10 = getelementptr inbounds nuw i8, ptr %3, i64 64
  %.sroa.0.0.extract.trunc.i = trunc i64 %5 to i32
  %.sroa.2.0.extract.shift.i = lshr i64 %5, 32
  %.sroa.2.0.extract.trunc.i = trunc nuw i64 %.sroa.2.0.extract.shift.i to i32
  %11 = sitofp i32 %.sroa.0.0.extract.trunc.i to double
  %12 = sitofp i32 %.sroa.2.0.extract.trunc.i to double
  %13 = fdiv nsz double %11, %12
  %14 = getelementptr inbounds nuw i8, ptr %3, i64 16
  br i1 %.not, label %15, label %.thread88

15:                                               ; preds = %6
  tail call void (ptr, i32, ptr, ...) @av_log(ptr noundef %0, i32 noundef %2, ptr noundef nonnull @.str.30, i32 noundef %8) #9
  %16 = load i32, ptr %9, align 8, !tbaa !20
  %17 = and i32 %16, 1
  tail call void (ptr, i32, ptr, ...) @av_log(ptr noundef %0, i32 noundef %2, ptr noundef nonnull @.str.31, i32 noundef %17) #9
  %18 = load i64, ptr %10, align 8, !tbaa !21
  %19 = sitofp i64 %18 to double
  %20 = fmul nsz double %13, %19
  tail call void (ptr, i32, ptr, ...) @av_log(ptr noundef %0, i32 noundef %2, ptr noundef nonnull @.str.32, double noundef %20) #9
  tail call void (ptr, i32, ptr, ...) @av_log(ptr noundef %0, i32 noundef %2, ptr noundef nonnull @.str.33) #9
  %21 = load i64, ptr %14, align 8, !tbaa !22
  %22 = icmp eq i64 %21, -9223372036854775808
  br i1 %22, label %34, label %36

.thread88:                                        ; preds = %6
  %23 = tail call i32 (ptr, ptr, ...) @fprintf(ptr noundef nonnull %1, ptr noundef nonnull @.str.30, i32 noundef %8) #9
  %24 = load i32, ptr %9, align 8, !tbaa !20
  %25 = and i32 %24, 1
  %26 = tail call i32 (ptr, ptr, ...) @fprintf(ptr noundef nonnull %1, ptr noundef nonnull @.str.31, i32 noundef %25) #9
  %27 = load i64, ptr %10, align 8, !tbaa !21
  %28 = sitofp i64 %27 to double
  %29 = fmul nsz double %13, %28
  %30 = tail call i32 (ptr, ptr, ...) @fprintf(ptr noundef nonnull %1, ptr noundef nonnull @.str.32, double noundef %29) #9
  %31 = tail call i64 @fwrite(ptr nonnull @.str.33, i64 6, i64 1, ptr nonnull %1)
  %32 = load i64, ptr %14, align 8, !tbaa !22
  %33 = icmp eq i64 %32, -9223372036854775808
  br i1 %33, label %.thread89, label %.thread90

34:                                               ; preds = %15
  tail call void (ptr, i32, ptr, ...) @av_log(ptr noundef %0, i32 noundef %2, ptr noundef nonnull @.str.8) #9
  br label %42

.thread89:                                        ; preds = %.thread88
  %35 = tail call i64 @fwrite(ptr nonnull @.str.8, i64 3, i64 1, ptr nonnull %1)
  br label %.thread92

36:                                               ; preds = %15
  %37 = sitofp i64 %21 to double
  %38 = fmul nsz double %13, %37
  tail call void (ptr, i32, ptr, ...) @av_log(ptr noundef %0, i32 noundef %2, ptr noundef nonnull @.str.34, double noundef %38) #9
  br label %42

.thread90:                                        ; preds = %.thread88
  %39 = sitofp i64 %32 to double
  %40 = fmul nsz double %13, %39
  %41 = tail call i32 (ptr, ptr, ...) @fprintf(ptr noundef nonnull %1, ptr noundef nonnull @.str.34, double noundef %40) #9
  br label %.thread92

42:                                               ; preds = %36, %34
  tail call void (ptr, i32, ptr, ...) @av_log(ptr noundef %0, i32 noundef %2, ptr noundef nonnull @.str.35) #9
  %43 = getelementptr inbounds nuw i8, ptr %3, i64 8
  %44 = load i64, ptr %43, align 8, !tbaa !23
  %45 = icmp eq i64 %44, -9223372036854775808
  br i1 %45, label %50, label %52

.thread92:                                        ; preds = %.thread89, %.thread90
  %46 = tail call i64 @fwrite(ptr nonnull @.str.35, i64 6, i64 1, ptr nonnull %1)
  %47 = getelementptr inbounds nuw i8, ptr %3, i64 8
  %48 = load i64, ptr %47, align 8, !tbaa !23
  %49 = icmp eq i64 %48, -9223372036854775808
  br i1 %49, label %.thread93, label %.thread94

50:                                               ; preds = %42
  tail call void (ptr, i32, ptr, ...) @av_log(ptr noundef %0, i32 noundef %2, ptr noundef nonnull @.str.8) #9
  br label %58

.thread93:                                        ; preds = %.thread92
  %51 = tail call i64 @fwrite(ptr nonnull @.str.8, i64 3, i64 1, ptr nonnull %1)
  br label %61

52:                                               ; preds = %42
  %53 = sitofp i64 %44 to double
  %54 = fmul nsz double %13, %53
  tail call void (ptr, i32, ptr, ...) @av_log(ptr noundef %0, i32 noundef %2, ptr noundef nonnull @.str.34, double noundef %54) #9
  br label %58

.thread94:                                        ; preds = %.thread92
  %55 = sitofp i64 %48 to double
  %56 = fmul nsz double %13, %55
  %57 = tail call i32 (ptr, ptr, ...) @fprintf(ptr noundef nonnull %1, ptr noundef nonnull @.str.34, double noundef %56) #9
  br label %61

58:                                               ; preds = %52, %50
  tail call void (ptr, i32, ptr, ...) @av_log(ptr noundef %0, i32 noundef %2, ptr noundef nonnull @.str.15) #9
  %59 = getelementptr inbounds nuw i8, ptr %3, i64 32
  %60 = load i32, ptr %59, align 8, !tbaa !24
  tail call void (ptr, i32, ptr, ...) @av_log(ptr noundef %0, i32 noundef %2, ptr noundef nonnull @.str.36, i32 noundef %60) #9
  br label %65

61:                                               ; preds = %.thread94, %.thread93
  %fputc = tail call i32 @fputc(i32 10, ptr nonnull %1)
  %62 = getelementptr inbounds nuw i8, ptr %3, i64 32
  %63 = load i32, ptr %62, align 8, !tbaa !24
  %64 = tail call i32 (ptr, ptr, ...) @fprintf(ptr noundef nonnull %1, ptr noundef nonnull @.str.36, i32 noundef %63) #9
  br label %65

65:                                               ; preds = %58, %61
  %.not70 = icmp eq i32 %4, 0
  br i1 %.not70, label %71, label %66

66:                                               ; preds = %65
  %67 = getelementptr inbounds nuw i8, ptr %3, i64 24
  %68 = load ptr, ptr %67, align 8, !tbaa !25
  %69 = getelementptr inbounds nuw i8, ptr %3, i64 32
  %70 = load i32, ptr %69, align 8, !tbaa !24
  tail call fastcc void @hex_dump_internal(ptr noundef %0, ptr noundef %1, i32 noundef %2, ptr noundef %68, i32 noundef %70)
  br label %71

71:                                               ; preds = %66, %65
  ret void
}